target datalayout = "e-m:e-p270:32:32-p271:32:32-p272:64:64-i64:64-i128:128-f80:128-n8:16:32:64-S128"
target triple = "x86_64-pc-linux-gnu"

%struct.PJconsts = type { ptr, ptr, ptr, ptr, ptr, ptr, ptr, ptr, ptr, ptr, ptr, ptr, i32, ptr, ptr, ptr, ptr, ptr, ptr, ptr, ptr, double, double, double, double, double, double, double, double, double, double, double, double, double, double, double, double, double, double, double, double, double, double, i32, i32, i32, i32, i32, i32, i32, i32, i32, i32, i32, ptr, ptr, ptr, ptr, ptr, ptr, double, double, double, double, double, double, double, double, double, double, double, i32, [7 x double], i32, ptr, ptr, double, double, i32, [4 x i8], %"class.std::shared_ptr", i8, double, i8, %"class.std::__cxx11::basic_string", %"class.std::__cxx11::basic_string", %"class.std::__cxx11::basic_string", i8, %"class.std::vector", i32, %"class.std::vector.3", i32, i8, i8, i8, ptr }
%"class.std::shared_ptr" = type { %"class.std::__shared_ptr" }
%"class.std::__shared_ptr" = type { ptr, %"class.std::__shared_count" }
%"class.std::__shared_count" = type { ptr }
%"class.std::__cxx11::basic_string" = type { %"struct.std::__cxx11::basic_string<char>::_Alloc_hider", i64, %union.anon }
%"struct.std::__cxx11::basic_string<char>::_Alloc_hider" = type { ptr }
%union.anon = type { i64, [8 x i8] }
%"class.std::vector" = type { %"struct.std::_Vector_base" }
%"struct.std::_Vector_base" = type { %"struct.std::_Vector_base<osgeo::proj::operation::GridDescription, std::allocator<osgeo::proj::operation::GridDescription>>::_Vector_impl" }
%"struct.std::_Vector_base<osgeo::proj::operation::GridDescription, std::allocator<osgeo::proj::operation::GridDescription>>::_Vector_impl" = type { %"struct.std::_Vector_base<osgeo::proj::operation::GridDescription, std::allocator<osgeo::proj::operation::GridDescription>>::_Vector_impl_data" }
%"struct.std::_Vector_base<osgeo::proj::operation::GridDescription, std::allocator<osgeo::proj::operation::GridDescription>>::_Vector_impl_data" = type { ptr, ptr, ptr }
%"class.std::vector.3" = type { %"struct.std::_Vector_base.4" }
%"struct.std::_Vector_base.4" = type { %"struct.std::_Vector_base<PJCoordOperation, std::allocator<PJCoordOperation>>::_Vector_impl" }
%"struct.std::_Vector_base<PJCoordOperation, std::allocator<PJCoordOperation>>::_Vector_impl" = type { %"struct.std::_Vector_base<PJCoordOperation, std::allocator<PJCoordOperation>>::_Vector_impl_data" }
%"struct.std::_Vector_base<PJCoordOperation, std::allocator<PJCoordOperation>>::_Vector_impl_data" = type { ptr, ptr, ptr }
%"struct.(anonymous namespace)::pj_healpix_data" = type { i32, i32, double, double, ptr }
%struct.PJ_XY = type { double, double }
%struct.PJ_LP = type { double, double }

; Function Attrs: inlinehint mustprogress nounwind uwtable
define linkonce_odr noundef double @_ZSt3powIdiEN9__gnu_cxx9__promoteIDTplcvNS1_IT_Xsr3std12__is_integerIS2_EE7__valueEE6__typeELi0EcvNS1_IT0_Xsr3std12__is_integerIS5_EE7__valueEE6__typeELi0EEXsr3std12__is_integerIS8_EE7__valueEE6__typeES2_S5_(double noundef %0, i32 noundef %1) #9 comdat {
  %3 = alloca double, align 8
  %4 = alloca i32, align 4
  store double %0, ptr %3, align 8, !tbaa !48
  store i32 %1, ptr %4, align 4, !tbaa !58
  %5 = load double, ptr %3, align 8, !tbaa !48
  %6 = load i32, ptr %4, align 4, !tbaa !58
  %7 = sitofp i32 %6 to double
  %8 = call double @pow(double noundef %5, double noundef %7) #10, !tbaa !58
  ret double %8
}

; Function Attrs: mustprogress nounwind uwtable
define internal noundef double @_ZL4signd(double noundef %0) #5 {
  %2 = alloca double, align 8
  store double %0, ptr %2, align 8, !tbaa !48
  %3 = load double, ptr %2, align 8, !tbaa !48
  %4 = fcmp ogt double %3, 0.000000e+00
  br i1 %4, label %5, label %6

5:                                                ; preds = %1
  br label %10

6:                                                ; preds = %1
  %7 = load double, ptr %2, align 8, !tbaa !48
  %8 = fcmp olt double %7, 0.000000e+00
  %9 = select i1 %8, i32 -1, i32 0
  br label %10

10:                                               ; preds = %6, %5
  %11 = phi i32 [ 1, %5 ], [ %9, %6 ]
  %12 = sitofp i32 %11 to double
  ret double %12
}

; Function Attrs: mustprogress uwtable
define internal { double, double } @_ZL30healpix_spherhealpix_e_inverse5PJ_XY(double %0, double %1) #0 {
  %3 = alloca %struct.PJ_LP, align 8
  %4 = alloca %struct.PJ_XY, align 8
  %5 = alloca double, align 8
  %6 = alloca double, align 8
  %7 = alloca double, align 8
  %8 = alloca double, align 8
  %9 = alloca double, align 8
  %10 = alloca double, align 8
  %11 = getelementptr inbounds nuw { double, double }, ptr %4, i32 0, i32 0
  store double %0, ptr %11, align 8
  %12 = getelementptr inbounds nuw { double, double }, ptr %4, i32 0, i32 1
  store double %1, ptr %12, align 8
  call void @llvm.lifetime.start.p0(i64 8, ptr %5) #10
  %13 = getelementptr inbounds nuw %struct.PJ_XY, ptr %4, i32 0, i32 0
  %14 = load double, ptr %13, align 8, !tbaa !64
  store double %14, ptr %5, align 8, !tbaa !48
  call void @llvm.lifetime.start.p0(i64 8, ptr %6) #10
  %15 = getelementptr inbounds nuw %struct.PJ_XY, ptr %4, i32 0, i32 1
  %16 = load double, ptr %15, align 8, !tbaa !66
  store double %16, ptr %6, align 8, !tbaa !48
  call void @llvm.lifetime.start.p0(i64 8, ptr %7) #10
  store double 0x3FE921FB54442D18, ptr %7, align 8, !tbaa !48
  %17 = load double, ptr %6, align 8, !tbaa !48
  %18 = call double @llvm.fabs.f64(double %17)
  %19 = load double, ptr %7, align 8, !tbaa !48
  %20 = fcmp ole double %18, %19
  br i1 %20, label %21, label %29

21:                                               ; preds = %2
  %22 = load double, ptr %5, align 8, !tbaa !48
  %23 = getelementptr inbounds nuw %struct.PJ_LP, ptr %3, i32 0, i32 0
  store double %22, ptr %23, align 8, !tbaa !67
  %24 = load double, ptr %6, align 8, !tbaa !48
  %25 = fmul double 8.000000e+00, %24
  %26 = fdiv double %25, 0x4022D97C7F3321D2
  %27 = call double @asin(double noundef %26) #10, !tbaa !58
  %28 = getelementptr inbounds nuw %struct.PJ_LP, ptr %3, i32 0, i32 1
  store double %27, ptr %28, align 8, !tbaa !61
  br label %74

29:                                               ; preds = %2
  %30 = load double, ptr %6, align 8, !tbaa !48
  %31 = call double @llvm.fabs.f64(double %30)
  %32 = fcmp olt double %31, 0x3FF921FB54442D18
  br i1 %32, label %33, label %67

33:                                               ; preds = %29
  call void @llvm.lifetime.start.p0(i64 8, ptr %8) #10
  %34 = load double, ptr %5, align 8, !tbaa !48
  %35 = fmul double 2.000000e+00, %34
  %36 = fdiv double %35, 0x400921FB54442D18
  %37 = fadd double %36, 2.000000e+00
  %38 = call double @llvm.floor.f64(double %37)
  store double %38, ptr %8, align 8, !tbaa !48
  call void @llvm.lifetime.start.p0(i64 8, ptr %9) #10
  call void @llvm.lifetime.start.p0(i64 8, ptr %10) #10
  %39 = load double, ptr %8, align 8, !tbaa !48
  %40 = fcmp oge double %39, 4.000000e+00
  br i1 %40, label %41, label %42

41:                                               ; preds = %33
  store double 3.000000e+00, ptr %8, align 8, !tbaa !48
  br label %42

42:                                               ; preds = %41, %33
  %43 = load double, ptr %8, align 8, !tbaa !48
  %44 = call double @llvm.fmuladd.f64(double 0x3FF921FB54442D18, double %43, double 0xC002D97C7F3321D2)
  store double %44, ptr %9, align 8, !tbaa !48
  %45 = load double, ptr %6, align 8, !tbaa !48
  %46 = call double @llvm.fabs.f64(double %45)
  %47 = fmul double 4.000000e+00, %46
  %48 = fdiv double %47, 0x400921FB54442D18
  %49 = fsub double 2.000000e+00, %48
  store double %49, ptr %10, align 8, !tbaa !48
  %50 = load double, ptr %9, align 8, !tbaa !48
  %51 = load double, ptr %5, align 8, !tbaa !48
  %52 = load double, ptr %9, align 8, !tbaa !48
  %53 = fsub double %51, %52
  %54 = load double, ptr %10, align 8, !tbaa !48
  %55 = fdiv double %53, %54
  %56 = fadd double %50, %55
  %57 = getelementptr inbounds nuw %struct.PJ_LP, ptr %3, i32 0, i32 0
  store double %56, ptr %57, align 8, !tbaa !67
  %58 = load double, ptr %6, align 8, !tbaa !48
  %59 = call noundef double @_ZL4signd(double noundef %58)
  %60 = load double, ptr %10, align 8, !tbaa !48
  %61 = call noundef double @_ZSt3powIdiEN9__gnu_cxx9__promoteIDTplcvNS1_IT_Xsr3std12__is_integerIS2_EE7__valueEE6__typeELi0EcvNS1_IT0_Xsr3std12__is_integerIS5_EE7__valueEE6__typeELi0EEXsr3std12__is_integerIS8_EE7__valueEE6__typeES2_S5_(double noundef %60, i32 noundef 2)
  %62 = fdiv double %61, 3.000000e+00
  %63 = fsub double 1.000000e+00, %62
  %64 = call double @asin(double noundef %63) #10, !tbaa !58
  %65 = fmul double %59, %64
  %66 = getelementptr inbounds nuw %struct.PJ_LP, ptr %3, i32 0, i32 1
  store double %65, ptr %66, align 8, !tbaa !61
  call void @llvm.lifetime.end.p0(i64 8, ptr %10) #10
  call void @llvm.lifetime.end.p0(i64 8, ptr %9) #10
  call void @llvm.lifetime.end.p0(i64 8, ptr %8) #10
  br label %73

67:                                               ; preds = %29
  %68 = getelementptr inbounds nuw %struct.PJ_LP, ptr %3, i32 0, i32 0
  store double 0xC00921FB54442D18, ptr %68, align 8, !tbaa !67
  %69 = load double, ptr %6, align 8, !tbaa !48
  %70 = call noundef double @_ZL4signd(double noundef %69)
  %71 = fmul double %70, 0x3FF921FB54442D18
  %72 = getelementptr inbounds nuw %struct.PJ_LP, ptr %3, i32 0, i32 1
  store double %71, ptr %72, align 8, !tbaa !61
  br label %73

73:                                               ; preds = %67, %42
  br label %74

74:                                               ; preds = %73, %21
  call void @llvm.lifetime.end.p0(i64 8, ptr %7) #10
  call void @llvm.lifetime.end.p0(i64 8, ptr %6) #10
  call void @llvm.lifetime.end.p0(i64 8, ptr %5) #10
  %75 = load { double, double }, ptr %3, align 8
  ret { double, double } %75
}

; Function Attrs: mustprogress uwtable
define internal { double, double } @_ZL18s_rhealpix_inverse5PJ_XYP8PJconsts(double %0, double %1, ptr noundef %2) #0 {
  %4 = alloca %struct.PJ_LP, align 8
  %5 = alloca %struct.PJ_XY, align 8
  %6 = alloca ptr, align 8
  %7 = alloca ptr, align 8
  %8 = alloca i32, align 4
  %9 = alloca %struct.PJ_XY, align 8
  %10 = alloca %struct.PJ_XY, align 8
  %11 = getelementptr inbounds nuw { double, double }, ptr %5, i32 0, i32 0
  store double %0, ptr %11, align 8
  %12 = getelementptr inbounds nuw { double, double }, ptr %5, i32 0, i32 1
  store double %1, ptr %12, align 8
  store ptr %2, ptr %6, align 8, !tbaa !3
  call void @llvm.lifetime.start.p0(i64 8, ptr %7) #10
  %13 = load ptr, ptr %6, align 8, !tbaa !3
  %14 = getelementptr inbounds nuw %struct.PJconsts, ptr %13, i32 0, i32 11
  %15 = load ptr, ptr %14, align 8, !tbaa !43
  store ptr %15, ptr %7, align 8, !tbaa !41
  %16 = getelementptr inbounds nuw %struct.PJ_XY, ptr %5, i32 0, i32 0
  %17 = load double, ptr %16, align 8, !tbaa !64
  %18 = getelementptr inbounds nuw %struct.PJ_XY, ptr %5, i32 0, i32 1
  %19 = load double, ptr %18, align 8, !tbaa !66
  %20 = load ptr, ptr %7, align 8, !tbaa !41
  %21 = getelementptr inbounds nuw %"struct.(anonymous namespace)::pj_healpix_data", ptr %20, i32 0, i32 0
  %22 = load i32, ptr %21, align 8, !tbaa !68
  %23 = load ptr, ptr %7, align 8, !tbaa !41
  %24 = getelementptr inbounds nuw %"struct.(anonymous namespace)::pj_healpix_data", ptr %23, i32 0, i32 1
  %25 = load i32, ptr %24, align 4, !tbaa !69
  %26 = call noundef i32 @_ZL8in_imageddiii(double noundef %17, double noundef %19, i32 noundef 1, i32 noundef %22, i32 noundef %25)
  %27 = icmp eq i32 %26, 0
  br i1 %27, label %28, label %34

28:                                               ; preds = %3
  %29 = getelementptr inbounds nuw %struct.PJ_LP, ptr %4, i32 0, i32 0
  store double 0x7FF0000000000000, ptr %29, align 8, !tbaa !67
  %30 = getelementptr inbounds nuw %struct.PJ_LP, ptr %4, i32 0, i32 1
  store double 0x7FF0000000000000, ptr %30, align 8, !tbaa !61
  %31 = load ptr, ptr %6, align 8, !tbaa !3
  %32 = getelementptr inbounds nuw %struct.PJconsts, ptr %31, i32 0, i32 0
  %33 = load ptr, ptr %32, align 8, !tbaa !45
  call void @_Z22proj_context_errno_setP6pj_ctxi(ptr noundef %33, i32 noundef 2050)
  store i32 1, ptr %8, align 4
  br label %59

34:                                               ; preds = %3
  call void @llvm.lifetime.start.p0(i64 16, ptr %9) #10
  %35 = getelementptr inbounds nuw %struct.PJ_XY, ptr %5, i32 0, i32 0
  %36 = load double, ptr %35, align 8, !tbaa !64
  %37 = getelementptr inbounds nuw %struct.PJ_XY, ptr %5, i32 0, i32 1
  %38 = load double, ptr %37, align 8, !tbaa !66
  %39 = load ptr, ptr %7, align 8, !tbaa !41
  %40 = getelementptr inbounds nuw %"struct.(anonymous namespace)::pj_healpix_data", ptr %39, i32 0, i32 0
  %41 = load i32, ptr %40, align 8, !tbaa !68
  %42 = load ptr, ptr %7, align 8, !tbaa !41
  %43 = getelementptr inbounds nuw %"struct.(anonymous namespace)::pj_healpix_data", ptr %42, i32 0, i32 1
  %44 = load i32, ptr %43, align 4, !tbaa !69
  %45 = call { double, double } @_ZL12combine_capsddiii(double noundef %36, double noundef %38, i32 noundef %41, i32 noundef %44, i32 noundef 1)
  %46 = getelementptr inbounds nuw { double, double }, ptr %9, i32 0, i32 0
  %47 = extractvalue { double, double } %45, 0
  store double %47, ptr %46, align 8
  %48 = getelementptr inbounds nuw { double, double }, ptr %9, i32 0, i32 1
  %49 = extractvalue { double, double } %45, 1
  store double %49, ptr %48, align 8
  call void @llvm.memcpy.p0.p0.i64(ptr align 8 %5, ptr align 8 %9, i64 16, i1 false), !tbaa.struct !63
  call void @llvm.lifetime.end.p0(i64 16, ptr %9) #10
  call void @llvm.memcpy.p0.p0.i64(ptr align 8 %10, ptr align 8 %5, i64 16, i1 false), !tbaa.struct !63
  %50 = getelementptr inbounds nuw { double, double }, ptr %10, i32 0, i32 0
  %51 = load double, ptr %50, align 8
  %52 = getelementptr inbounds nuw { double, double }, ptr %10, i32 0, i32 1
  %53 = load double, ptr %52, align 8
  %54 = call { double, double } @_ZL30healpix_spherhealpix_e_inverse5PJ_XY(double %51, double %53)
  %55 = getelementptr inbounds nuw { double, double }, ptr %4, i32 0, i32 0
  %56 = extractvalue { double, double } %54, 0
  store double %56, ptr %55, align 8
  %57 = getelementptr inbounds nuw { double, double }, ptr %4, i32 0, i32 1
  %58 = extractvalue { double, double } %54, 1
  store double %58, ptr %57, align 8
  store i32 1, ptr %8, align 4
  br label %59

59:                                               ; preds = %34, %28
  call void @llvm.lifetime.end.p0(i64 8, ptr %7) #10
  %60 = load { double, double }, ptr %4, align 8
  ret { double, double } %60
}